(iPlayer
Player
p0
(dp1
S'soundOn'
p2
I01
sS'additionalMissiles'
p3
I3
sS'prixMissile'
p4
I2400
sS'record'
p5
I906
sS'shopStateList'
p6
(lp7
I0
aI1
aI1
aI0
aI1
aI1
aI0
asS'money'
p8
I95553
sS'musicOn'
p9
I01
sb.