(iPlayer
Player
p0
(dp1
S'sound'
p2
I01
sS'advancedGunEvolution1'
p3
I00
sS'advancedGunEvolution2'
p4
I00
sS'money'
p5
I268243
sS'advancedGun'
p6
I00
sS'propulseurHorizontal'
p7
I00
sS'aerofrein'
p8
I00
sS'record'
p9
I439
sS'music'
p10
I01
sS'basicGunEvolution2'
p11
I00
sS'basicGunEvolution1'
p12
I00
sS'name'
p13
S'Player'
p14
sb.