(iPlayer
Player
p0
(dp1
S'sound'
p2
I01
sS'advancedGunEvolution2On'
p3
I00
sS'propulseurHorizontalOn'
p4
I00
sS'name'
p5
S'Player'
p6
sS'aerofreinOn'
p7
I00
sS'advancedGunOn'
p8
I00
sS'musicOn'
p9
I01
sS'record'
p10
I349
sS'money'
p11
I95928
sS'advancedGunEvolution1On'
p12
I00
sS'basicGunEvolution1On'
p13
I00
sS'basicGunEvolution2On'
p14
I00
sS'goldShipOn'
p15
I00
sb.