(iPlayer2
player
p0
(dp1
S'sound'
p2
I01
sS'advancedGunEvolution1'
p3
I00
sS'advancedGunEvolution2'
p4
I00
sS'advancedGun'
p5
I00
sS'basicGunEvolution2'
p6
I00
sS'aerofrein'
p7
I00
sS'record'
p8
I52
sS'mucis'
p9
I01
sS'propulseurHorizontal'
p10
I00
sS'basicGunEvolution1'
p11
I00
sS'name'
p12
S'Player'
p13
sb.