(iPlayer
Player
p0
(dp1
S'soundOn'
p2
I01
sS'additionalMissiles'
p3
I4
sS'prixMissile'
p4
I4800
sS'record'
p5
I147
sS'shopStateList'
p6
(lp7
I1
aI1
aI1
aI1
aI1
aI0
aI0
asS'money'
p8
I87040
sS'musicOn'
p9
I01
sb.